target datalayout = "e-m:e-p270:32:32-p271:32:32-p272:64:64-i64:64-i128:128-f80:128-n8:16:32:64-S128"
target triple = "x86_64-pc-linux-gnu"

%struct.H5HF_huge_bt2_ctx_t = type { i8, i8 }
%struct.H5HF_huge_bt2_dir_rec_t = type { i64, i64 }

@H5HF_init_g = external global i8, align 1
@H5_libterm_g = external global i8, align 1

; Function Attrs: nounwind uwtable
define internal i32 @H5HF__huge_bt2_dir_encode(ptr noundef %0, ptr noundef %1, ptr noundef %2) #0 {
  %4 = alloca ptr, align 8
  %5 = alloca ptr, align 8
  %6 = alloca ptr, align 8
  %7 = alloca ptr, align 8
  %8 = alloca ptr, align 8
  %9 = alloca i64, align 8
  %10 = alloca i64, align 8
  %11 = alloca ptr, align 8
  store ptr %0, ptr %4, align 8, !tbaa !27
  store ptr %1, ptr %5, align 8, !tbaa !3
  store ptr %2, ptr %6, align 8, !tbaa !3
  call void @llvm.lifetime.start.p0(i64 8, ptr %7) #6
  %12 = load ptr, ptr %6, align 8, !tbaa !3
  store ptr %12, ptr %7, align 8, !tbaa !13
  call void @llvm.lifetime.start.p0(i64 8, ptr %8) #6
  %13 = load ptr, ptr %5, align 8, !tbaa !3
  store ptr %13, ptr %8, align 8, !tbaa !62
  %14 = load i8, ptr @H5HF_init_g, align 1, !tbaa !9, !range !11, !noundef !12
  %15 = trunc i8 %14 to i1
  br i1 %15, label %20, label %16

16:                                               ; preds = %3
  %17 = load i8, ptr @H5_libterm_g, align 1, !tbaa !9, !range !11, !noundef !12
  %18 = trunc i8 %17 to i1
  %19 = xor i1 %18, true
  br label %20

20:                                               ; preds = %16, %3
  %21 = phi i1 [ true, %3 ], [ %19, %16 ]
  %22 = xor i1 %21, true
  %23 = xor i1 %22, true
  %24 = zext i1 %23 to i32
  %25 = sext i32 %24 to i64
  %26 = call i64 @llvm.expect.i64(i64 %25, i64 1)
  %27 = icmp ne i64 %26, 0
  br i1 %27, label %28, label %142

28:                                               ; preds = %20
  %29 = load ptr, ptr %7, align 8, !tbaa !13
  %30 = getelementptr inbounds nuw %struct.H5HF_huge_bt2_ctx_t, ptr %29, i32 0, i32 1
  %31 = load i8, ptr %30, align 1, !tbaa !17
  %32 = zext i8 %31 to i64
  %33 = load ptr, ptr %8, align 8, !tbaa !62
  %34 = getelementptr inbounds nuw %struct.H5HF_huge_bt2_dir_rec_t, ptr %33, i32 0, i32 0
  %35 = load i64, ptr %34, align 8, !tbaa !64
  call void @H5F_addr_encode_len(i64 noundef %32, ptr noundef %4, i64 noundef %35)
  br label %36

36:                                               ; preds = %28
  %37 = load ptr, ptr %7, align 8, !tbaa !13
  %38 = getelementptr inbounds nuw %struct.H5HF_huge_bt2_ctx_t, ptr %37, i32 0, i32 0
  %39 = load i8, ptr %38, align 1, !tbaa !19
  %40 = zext i8 %39 to i32
  switch i32 %40, label %138 [
    i32 4, label %41
    i32 8, label %80
    i32 2, label %115
  ]

41:                                               ; preds = %36
  br label %42

42:                                               ; preds = %41
  %43 = load ptr, ptr %8, align 8, !tbaa !62
  %44 = getelementptr inbounds nuw %struct.H5HF_huge_bt2_dir_rec_t, ptr %43, i32 0, i32 1
  %45 = load i64, ptr %44, align 8, !tbaa !66
  %46 = and i64 %45, 255
  %47 = trunc i64 %46 to i8
  %48 = load ptr, ptr %4, align 8, !tbaa !27
  store i8 %47, ptr %48, align 1, !tbaa !33
  %49 = load ptr, ptr %4, align 8, !tbaa !27
  %50 = getelementptr inbounds nuw i8, ptr %49, i32 1
  store ptr %50, ptr %4, align 8, !tbaa !27
  %51 = load ptr, ptr %8, align 8, !tbaa !62
  %52 = getelementptr inbounds nuw %struct.H5HF_huge_bt2_dir_rec_t, ptr %51, i32 0, i32 1
  %53 = load i64, ptr %52, align 8, !tbaa !66
  %54 = lshr i64 %53, 8
  %55 = and i64 %54, 255
  %56 = trunc i64 %55 to i8
  %57 = load ptr, ptr %4, align 8, !tbaa !27
  store i8 %56, ptr %57, align 1, !tbaa !33
  %58 = load ptr, ptr %4, align 8, !tbaa !27
  %59 = getelementptr inbounds nuw i8, ptr %58, i32 1
  store ptr %59, ptr %4, align 8, !tbaa !27
  %60 = load ptr, ptr %8, align 8, !tbaa !62
  %61 = getelementptr inbounds nuw %struct.H5HF_huge_bt2_dir_rec_t, ptr %60, i32 0, i32 1
  %62 = load i64, ptr %61, align 8, !tbaa !66
  %63 = lshr i64 %62, 16
  %64 = and i64 %63, 255
  %65 = trunc i64 %64 to i8
  %66 = load ptr, ptr %4, align 8, !tbaa !27
  store i8 %65, ptr %66, align 1, !tbaa !33
  %67 = load ptr, ptr %4, align 8, !tbaa !27
  %68 = getelementptr inbounds nuw i8, ptr %67, i32 1
  store ptr %68, ptr %4, align 8, !tbaa !27
  %69 = load ptr, ptr %8, align 8, !tbaa !62
  %70 = getelementptr inbounds nuw %struct.H5HF_huge_bt2_dir_rec_t, ptr %69, i32 0, i32 1
  %71 = load i64, ptr %70, align 8, !tbaa !66
  %72 = lshr i64 %71, 24
  %73 = and i64 %72, 255
  %74 = trunc i64 %73 to i8
  %75 = load ptr, ptr %4, align 8, !tbaa !27
  store i8 %74, ptr %75, align 1, !tbaa !33
  %76 = load ptr, ptr %4, align 8, !tbaa !27
  %77 = getelementptr inbounds nuw i8, ptr %76, i32 1
  store ptr %77, ptr %4, align 8, !tbaa !27
  br label %78

78:                                               ; preds = %42
  br label %79

79:                                               ; preds = %78
  br label %139

80:                                               ; preds = %36
  br label %81

81:                                               ; preds = %80
  call void @llvm.lifetime.start.p0(i64 8, ptr %9) #6
  %82 = load ptr, ptr %8, align 8, !tbaa !62
  %83 = getelementptr inbounds nuw %struct.H5HF_huge_bt2_dir_rec_t, ptr %82, i32 0, i32 1
  %84 = load i64, ptr %83, align 8, !tbaa !66
  store i64 %84, ptr %9, align 8, !tbaa !15
  call void @llvm.lifetime.start.p0(i64 8, ptr %10) #6
  call void @llvm.lifetime.start.p0(i64 8, ptr %11) #6
  %85 = load ptr, ptr %4, align 8, !tbaa !27
  store ptr %85, ptr %11, align 8, !tbaa !27
  store i64 0, ptr %10, align 8, !tbaa !15
  br label %86

86:                                               ; preds = %95, %81
  %87 = load i64, ptr %10, align 8, !tbaa !15
  %88 = icmp ult i64 %87, 8
  br i1 %88, label %89, label %100

89:                                               ; preds = %86
  %90 = load i64, ptr %9, align 8, !tbaa !15
  %91 = and i64 %90, 255
  %92 = trunc i64 %91 to i8
  %93 = load ptr, ptr %11, align 8, !tbaa !27
  %94 = getelementptr inbounds nuw i8, ptr %93, i32 1
  store ptr %94, ptr %11, align 8, !tbaa !27
  store i8 %92, ptr %93, align 1, !tbaa !33
  br label %95

95:                                               ; preds = %89
  %96 = load i64, ptr %10, align 8, !tbaa !15
  %97 = add i64 %96, 1
  store i64 %97, ptr %10, align 8, !tbaa !15
  %98 = load i64, ptr %9, align 8, !tbaa !15
  %99 = lshr i64 %98, 8
  store i64 %99, ptr %9, align 8, !tbaa !15
  br label %86, !llvm.loop !67

100:                                              ; preds = %86
  br label %101

101:                                              ; preds = %107, %100
  %102 = load i64, ptr %10, align 8, !tbaa !15
  %103 = icmp ult i64 %102, 8
  br i1 %103, label %104, label %110

104:                                              ; preds = %101
  %105 = load ptr, ptr %11, align 8, !tbaa !27
  %106 = getelementptr inbounds nuw i8, ptr %105, i32 1
  store ptr %106, ptr %11, align 8, !tbaa !27
  store i8 0, ptr %105, align 1, !tbaa !33
  br label %107

107:                                              ; preds = %104
  %108 = load i64, ptr %10, align 8, !tbaa !15
  %109 = add i64 %108, 1
  store i64 %109, ptr %10, align 8, !tbaa !15
  br label %101, !llvm.loop !68

110:                                              ; preds = %101
  %111 = load ptr, ptr %4, align 8, !tbaa !27
  %112 = getelementptr inbounds i8, ptr %111, i64 8
  store ptr %112, ptr %4, align 8, !tbaa !27
  call void @llvm.lifetime.end.p0(i64 8, ptr %11) #6
  call void @llvm.lifetime.end.p0(i64 8, ptr %10) #6
  call void @llvm.lifetime.end.p0(i64 8, ptr %9) #6
  br label %113

113:                                              ; preds = %110
  br label %114

114:                                              ; preds = %113
  br label %139

115:                                              ; preds = %36
  br label %116

116:                                              ; preds = %115
  %117 = load ptr, ptr %8, align 8, !tbaa !62
  %118 = getelementptr inbounds nuw %struct.H5HF_huge_bt2_dir_rec_t, ptr %117, i32 0, i32 1
  %119 = load i64, ptr %118, align 8, !tbaa !66
  %120 = trunc i64 %119 to i32
  %121 = and i32 %120, 255
  %122 = trunc i32 %121 to i8
  %123 = load ptr, ptr %4, align 8, !tbaa !27
  store i8 %122, ptr %123, align 1, !tbaa !33
  %124 = load ptr, ptr %4, align 8, !tbaa !27
  %125 = getelementptr inbounds nuw i8, ptr %124, i32 1
  store ptr %125, ptr %4, align 8, !tbaa !27
  %126 = load ptr, ptr %8, align 8, !tbaa !62
  %127 = getelementptr inbounds nuw %struct.H5HF_huge_bt2_dir_rec_t, ptr %126, i32 0, i32 1
  %128 = load i64, ptr %127, align 8, !tbaa !66
  %129 = trunc i64 %128 to i32
  %130 = lshr i32 %129, 8
  %131 = and i32 %130, 255
  %132 = trunc i32 %131 to i8
  %133 = load ptr, ptr %4, align 8, !tbaa !27
  store i8 %132, ptr %133, align 1, !tbaa !33
  %134 = load ptr, ptr %4, align 8, !tbaa !27
  %135 = getelementptr inbounds nuw i8, ptr %134, i32 1
  store ptr %135, ptr %4, align 8, !tbaa !27
  br label %136

136:                                              ; preds = %116
  br label %137

137:                                              ; preds = %136
  br label %139

138:                                              ; preds = %36
  br label %139

139:                                              ; preds = %138, %137, %114, %79
  br label %140

140:                                              ; preds = %139
  br label %141

141:                                              ; preds = %140
  br label %142

142:                                              ; preds = %141, %20
  call void @llvm.lifetime.end.p0(i64 8, ptr %8) #6
  call void @llvm.lifetime.end.p0(i64 8, ptr %7) #6
  ret i32 0
}