; Function Attrs: nounwind uwtable
define internal noundef i32 @H5HF__huge_bt2_dir_encode(ptr noundef %0, ptr noundef readonly captures(none) %1, ptr noundef readonly captures(none) %2) #0 {
  %4 = alloca ptr, align 8
  store ptr %0, ptr %4, align 8, !tbaa !20
  %5 = load i8, ptr @H5HF_init_g, align 1, !tbaa !3, !range !7, !noundef !8
  %6 = trunc nuw i8 %5 to i1
  %7 = load i8, ptr @H5_libterm_g, align 1, !range !7
  %8 = trunc nuw i8 %7 to i1
  %9 = xor i1 %8, true
  %10 = select i1 %6, i1 true, i1 %9
  br i1 %10, label %11, label %.loopexit, !prof !9

11:                                               ; preds = %3
  %12 = getelementptr inbounds nuw i8, ptr %2, i64 1
  %13 = load i8, ptr %12, align 1, !tbaa !12
  %14 = zext i8 %13 to i64
  %15 = load i64, ptr %1, align 8, !tbaa !45
  call void @H5F_addr_encode_len(i64 noundef %14, ptr noundef nonnull %4, i64 noundef %15) #6
  %16 = load i8, ptr %2, align 1, !tbaa !14
  switch i8 %16, label %.loopexit [
    i8 4, label %17
    i8 8, label %37
    i8 2, label %46
  ]

17:                                               ; preds = %11
  %18 = getelementptr inbounds nuw i8, ptr %1, i64 8
  %19 = load i64, ptr %18, align 8, !tbaa !47
  %20 = trunc i64 %19 to i8
  %21 = load ptr, ptr %4, align 8, !tbaa !20
  store i8 %20, ptr %21, align 1, !tbaa !25
  %22 = load ptr, ptr %4, align 8, !tbaa !20
  %23 = getelementptr inbounds nuw i8, ptr %22, i64 1
  store ptr %23, ptr %4, align 8, !tbaa !20
  %24 = load i64, ptr %18, align 8, !tbaa !47
  %25 = lshr i64 %24, 8
  %26 = trunc i64 %25 to i8
  store i8 %26, ptr %23, align 1, !tbaa !25
  %27 = load ptr, ptr %4, align 8, !tbaa !20
  %28 = getelementptr inbounds nuw i8, ptr %27, i64 1
  store ptr %28, ptr %4, align 8, !tbaa !20
  %29 = load i64, ptr %18, align 8, !tbaa !47
  %30 = lshr i64 %29, 16
  %31 = trunc i64 %30 to i8
  store i8 %31, ptr %28, align 1, !tbaa !25
  %32 = load ptr, ptr %4, align 8, !tbaa !20
  %33 = getelementptr inbounds nuw i8, ptr %32, i64 1
  %34 = load i64, ptr %18, align 8, !tbaa !47
  %35 = lshr i64 %34, 24
  %36 = trunc i64 %35 to i8
  store i8 %36, ptr %33, align 1, !tbaa !25
  br label %.loopexit

37:                                               ; preds = %11
  %38 = getelementptr inbounds nuw i8, ptr %1, i64 8
  %39 = load i64, ptr %38, align 8, !tbaa !47
  %40 = load ptr, ptr %4, align 8, !tbaa !20
  br label %41

41:                                               ; preds = %37, %41
  %.024 = phi ptr [ %40, %37 ], [ %43, %41 ]
  %.01923 = phi i64 [ 0, %37 ], [ %44, %41 ]
  %.02122 = phi i64 [ %39, %37 ], [ %45, %41 ]
  %42 = trunc i64 %.02122 to i8
  %43 = getelementptr inbounds nuw i8, ptr %.024, i64 1
  store i8 %42, ptr %.024, align 1, !tbaa !25
  %44 = add nuw nsw i64 %.01923, 1
  %45 = lshr i64 %.02122, 8
  %exitcond.not = icmp eq i64 %44, 8
  br i1 %exitcond.not, label %.loopexit, label %41, !llvm.loop !48

46:                                               ; preds = %11
  %47 = getelementptr inbounds nuw i8, ptr %1, i64 8
  %48 = load i64, ptr %47, align 8, !tbaa !47
  %49 = trunc i64 %48 to i8
  %50 = load ptr, ptr %4, align 8, !tbaa !20
  store i8 %49, ptr %50, align 1, !tbaa !25
  %51 = load ptr, ptr %4, align 8, !tbaa !20
  %52 = getelementptr inbounds nuw i8, ptr %51, i64 1
  %53 = load i64, ptr %47, align 8, !tbaa !47
  %54 = lshr i64 %53, 8
  %55 = trunc i64 %54 to i8
  store i8 %55, ptr %52, align 1, !tbaa !25
  br label %.loopexit

.loopexit:                                        ; preds = %41, %17, %46, %11, %3
  ret i32 0
}